target datalayout = "e-m:e-p270:32:32-p271:32:32-p272:64:64-i64:64-i128:128-f80:128-n8:16:32:64-S128"
target triple = "x86_64-pc-linux-gnu"

%struct.client = type { i64, i64, ptr, i8, i8, i8, i8, i32, ptr, ptr, ptr, ptr, ptr, i64, i64, i32, ptr, i32, i32, ptr, i64, ptr, ptr, ptr, ptr, ptr, i32, i32, i64, ptr, i64, ptr, i64, i64, i64, i32, ptr, i64, i64, i32, i32, i32, i32, i64, i64, ptr, i64, i64, i64, i64, i64, i64, i64, i64, [41 x i8], i32, ptr, i32, i32, i64, %struct.multiState, %struct.blockingState, i64, ptr, ptr, ptr, ptr, ptr, ptr, ptr, ptr, ptr, ptr, ptr, ptr, ptr, ptr, i64, ptr, i64, i32, ptr, ptr, ptr, i64, %struct.listNode, i64, i64, i32, i64, ptr }
%struct.multiState = type { ptr, i32, i32, i32, i64, i32 }
%struct.blockingState = type { i32, i64, i32, ptr, i32, i32, i64, ptr, ptr, i64 }
%struct.listNode = type { ptr, ptr, ptr }

@.str.1 = private unnamed_addr constant [13 x i8] c"networking.c\00", align 1
@.str.22 = private unnamed_addr constant [13 x i8] c"c->resp >= 3\00", align 1

; Function Attrs: nounwind uwtable
define dso_local void @addReplyAttributeLen(ptr noundef %0, i64 noundef %1) #0 {
  %3 = alloca ptr, align 8
  %4 = alloca i64, align 8
  store ptr %0, ptr %3, align 8, !tbaa !24
  store i64 %1, ptr %4, align 8, !tbaa !20
  %5 = load ptr, ptr %3, align 8, !tbaa !24
  %6 = getelementptr inbounds nuw %struct.client, ptr %5, i32 0, i32 7
  %7 = load i32, ptr %6, align 4, !tbaa !74
  %8 = icmp sge i32 %7, 3
  %9 = xor i1 %8, true
  %10 = xor i1 %9, true
  %11 = zext i1 %10 to i32
  %12 = sext i32 %11 to i64
  %13 = call i64 @llvm.expect.i64(i64 %12, i64 1)
  %14 = icmp ne i64 %13, 0
  br i1 %14, label %15, label %16

15:                                               ; preds = %2
  br label %18

16:                                               ; preds = %2
  call void @_serverAssert(ptr noundef @.str.22, ptr noundef @.str.1, i32 noundef 1038)
  call void @abort() #17
  unreachable

17:                                               ; No predecessors!
  br label %18

18:                                               ; preds = %17, %15
  %19 = load ptr, ptr %3, align 8, !tbaa !24
  %20 = load i64, ptr %4, align 8, !tbaa !20
  call void @addReplyAggregateLen(ptr noundef %19, i64 noundef %20, i32 noundef 124)
  ret void
}