; Function Attrs: nounwind uwtable
define dso_local void @addReplyAttributeLen(ptr noundef %0, i64 noundef %1) local_unnamed_addr #0 {
  %3 = getelementptr inbounds nuw i8, ptr %0, i64 28
  %4 = load i32, ptr %3, align 4, !tbaa !74
  %5 = icmp sgt i32 %4, 2
  br i1 %5, label %7, label %6, !prof !5

6:                                                ; preds = %2
  tail call void @_serverAssert(ptr noundef nonnull @.str.22, ptr noundef nonnull @.str.1, i32 noundef 1038) #26
  tail call void @abort() #27
  unreachable

7:                                                ; preds = %2
  tail call void @addReplyAggregateLen(ptr noundef nonnull %0, i64 noundef %1, i32 noundef 124)
  ret void
}